; Function Attrs: nounwind uwtable
define dso_local ptr @select_g_select_nodeinfo_alloc() local_unnamed_addr #0 {
  %1 = tail call ptr @slurm_xcalloc(i64 noundef 1, i64 noundef 16, i1 noundef zeroext true, i1 noundef zeroext false, ptr noundef nonnull @.str.6, i32 noundef 770, ptr noundef nonnull @__func__.select_g_select_nodeinfo_alloc) #15
  %2 = load i32, ptr @select_context_default, align 4
  %3 = getelementptr inbounds nuw i8, ptr %1, i64 8
  store i32 %2, ptr %3, align 8
  %4 = load ptr, ptr @ops, align 8
  %5 = sext i32 %2 to i64
  %6 = getelementptr inbounds %struct.slurm_select_ops_t, ptr %4, i64 %5, i32 18
  %7 = load ptr, ptr %6, align 8
  %8 = tail call ptr %7() #15
  store ptr %8, ptr %1, align 8
  ret ptr %1
}